; Function Attrs: mustprogress nofree norecurse nosync nounwind willreturn memory(argmem: write) uwtable
define void @_ZN3net20SpdyAltSvcWireFormat18AlternativeServiceC2Ev(ptr noundef nonnull align 8 dereferenceable(96) %0) unnamed_addr #0 align 2 personality ptr @__gxx_personality_v0 {
  %2 = getelementptr inbounds nuw i8, ptr %0, i64 16
  store ptr %2, ptr %0, align 8, !tbaa !3
  %3 = getelementptr inbounds nuw i8, ptr %0, i64 8
  store i64 0, ptr %3, align 8, !tbaa !9
  store i8 0, ptr %2, align 8, !tbaa !12
  %4 = getelementptr inbounds nuw i8, ptr %0, i64 32
  %5 = getelementptr inbounds nuw i8, ptr %0, i64 48
  store ptr %5, ptr %4, align 8, !tbaa !3
  %6 = getelementptr inbounds nuw i8, ptr %0, i64 40
  store i64 0, ptr %6, align 8, !tbaa !9
  store i8 0, ptr %5, align 8, !tbaa !12
  %7 = getelementptr inbounds nuw i8, ptr %0, i64 64
  store i16 0, ptr %7, align 8, !tbaa !13
  %8 = getelementptr inbounds nuw i8, ptr %0, i64 68
  store i32 86400, ptr %8, align 4, !tbaa !22
  %9 = getelementptr inbounds nuw i8, ptr %0, i64 72
  tail call void @llvm.memset.p0.i64(ptr noundef nonnull align 8 dereferenceable(24) %9, i8 0, i64 24, i1 false)
  ret void
}